target datalayout = "e-m:e-p270:32:32-p271:32:32-p272:64:64-i64:64-i128:128-f80:128-n8:16:32:64-S128"
target triple = "x86_64-pc-linux-gnu"

; Function Attrs: nounwind uwtable
define internal void @horizontal_compose_dd137i_8bit(ptr noundef %0, ptr noundef %1, i32 noundef %2) #0 {
  %4 = alloca ptr, align 8
  %5 = alloca ptr, align 8
  %6 = alloca i32, align 4
  %7 = alloca i32, align 4
  %8 = alloca i32, align 4
  %9 = alloca ptr, align 8
  %10 = alloca ptr, align 8
  store ptr %0, ptr %4, align 8, !tbaa !44
  store ptr %1, ptr %5, align 8, !tbaa !44
  store i32 %2, ptr %6, align 4, !tbaa !11
  call void @llvm.lifetime.start.p0(i64 4, ptr %7) #5
  %11 = load i32, ptr %6, align 4, !tbaa !11
  %12 = ashr i32 %11, 1
  store i32 %12, ptr %7, align 4, !tbaa !11
  call void @llvm.lifetime.start.p0(i64 4, ptr %8) #5
  call void @llvm.lifetime.start.p0(i64 8, ptr %9) #5
  %13 = load ptr, ptr %4, align 8, !tbaa !44
  store ptr %13, ptr %9, align 8, !tbaa !48
  call void @llvm.lifetime.start.p0(i64 8, ptr %10) #5
  %14 = load ptr, ptr %5, align 8, !tbaa !44
  store ptr %14, ptr %10, align 8, !tbaa !48
  %15 = load ptr, ptr %9, align 8, !tbaa !48
  %16 = getelementptr inbounds i16, ptr %15, i64 0
  %17 = load i16, ptr %16, align 2, !tbaa !50
  %18 = sext i16 %17 to i32
  %19 = load ptr, ptr %9, align 8, !tbaa !48
  %20 = load i32, ptr %7, align 4, !tbaa !11
  %21 = sext i32 %20 to i64
  %22 = getelementptr inbounds i16, ptr %19, i64 %21
  %23 = load i16, ptr %22, align 2, !tbaa !50
  %24 = sext i16 %23 to i32
  %25 = mul i32 9, %24
  %26 = load ptr, ptr %9, align 8, !tbaa !48
  %27 = load i32, ptr %7, align 4, !tbaa !11
  %28 = sext i32 %27 to i64
  %29 = getelementptr inbounds i16, ptr %26, i64 %28
  %30 = load i16, ptr %29, align 2, !tbaa !50
  %31 = sext i16 %30 to i32
  %32 = mul i32 9, %31
  %33 = add i32 %25, %32
  %34 = load ptr, ptr %9, align 8, !tbaa !48
  %35 = load i32, ptr %7, align 4, !tbaa !11
  %36 = add nsw i32 %35, 1
  %37 = sext i32 %36 to i64
  %38 = getelementptr inbounds i16, ptr %34, i64 %37
  %39 = load i16, ptr %38, align 2, !tbaa !50
  %40 = sext i16 %39 to i32
  %41 = sub i32 %33, %40
  %42 = load ptr, ptr %9, align 8, !tbaa !48
  %43 = load i32, ptr %7, align 4, !tbaa !11
  %44 = sext i32 %43 to i64
  %45 = getelementptr inbounds i16, ptr %42, i64 %44
  %46 = load i16, ptr %45, align 2, !tbaa !50
  %47 = sext i16 %46 to i32
  %48 = sub i32 %41, %47
  %49 = add i32 %48, 16
  %50 = ashr i32 %49, 5
  %51 = sub i32 %18, %50
  %52 = trunc i32 %51 to i16
  %53 = load ptr, ptr %10, align 8, !tbaa !48
  %54 = getelementptr inbounds i16, ptr %53, i64 0
  store i16 %52, ptr %54, align 2, !tbaa !50
  %55 = load ptr, ptr %9, align 8, !tbaa !48
  %56 = getelementptr inbounds i16, ptr %55, i64 1
  %57 = load i16, ptr %56, align 2, !tbaa !50
  %58 = sext i16 %57 to i32
  %59 = load ptr, ptr %9, align 8, !tbaa !48
  %60 = load i32, ptr %7, align 4, !tbaa !11
  %61 = sext i32 %60 to i64
  %62 = getelementptr inbounds i16, ptr %59, i64 %61
  %63 = load i16, ptr %62, align 2, !tbaa !50
  %64 = sext i16 %63 to i32
  %65 = mul i32 9, %64
  %66 = load ptr, ptr %9, align 8, !tbaa !48
  %67 = load i32, ptr %7, align 4, !tbaa !11
  %68 = add nsw i32 %67, 1
  %69 = sext i32 %68 to i64
  %70 = getelementptr inbounds i16, ptr %66, i64 %69
  %71 = load i16, ptr %70, align 2, !tbaa !50
  %72 = sext i16 %71 to i32
  %73 = mul i32 9, %72
  %74 = add i32 %65, %73
  %75 = load ptr, ptr %9, align 8, !tbaa !48
  %76 = load i32, ptr %7, align 4, !tbaa !11
  %77 = add nsw i32 %76, 2
  %78 = sext i32 %77 to i64
  %79 = getelementptr inbounds i16, ptr %75, i64 %78
  %80 = load i16, ptr %79, align 2, !tbaa !50
  %81 = sext i16 %80 to i32
  %82 = sub i32 %74, %81
  %83 = load ptr, ptr %9, align 8, !tbaa !48
  %84 = load i32, ptr %7, align 4, !tbaa !11
  %85 = sext i32 %84 to i64
  %86 = getelementptr inbounds i16, ptr %83, i64 %85
  %87 = load i16, ptr %86, align 2, !tbaa !50
  %88 = sext i16 %87 to i32
  %89 = sub i32 %82, %88
  %90 = add i32 %89, 16
  %91 = ashr i32 %90, 5
  %92 = sub i32 %58, %91
  %93 = trunc i32 %92 to i16
  %94 = load ptr, ptr %10, align 8, !tbaa !48
  %95 = getelementptr inbounds i16, ptr %94, i64 1
  store i16 %93, ptr %95, align 2, !tbaa !50
  store i32 2, ptr %8, align 4, !tbaa !11
  br label %96

96:                                               ; preds = %156, %3
  %97 = load i32, ptr %8, align 4, !tbaa !11
  %98 = load i32, ptr %7, align 4, !tbaa !11
  %99 = sub nsw i32 %98, 1
  %100 = icmp slt i32 %97, %99
  br i1 %100, label %101, label %159

101:                                              ; preds = %96
  %102 = load ptr, ptr %9, align 8, !tbaa !48
  %103 = load i32, ptr %8, align 4, !tbaa !11
  %104 = sext i32 %103 to i64
  %105 = getelementptr inbounds i16, ptr %102, i64 %104
  %106 = load i16, ptr %105, align 2, !tbaa !50
  %107 = sext i16 %106 to i32
  %108 = load ptr, ptr %9, align 8, !tbaa !48
  %109 = load i32, ptr %8, align 4, !tbaa !11
  %110 = load i32, ptr %7, align 4, !tbaa !11
  %111 = add nsw i32 %109, %110
  %112 = sub nsw i32 %111, 1
  %113 = sext i32 %112 to i64
  %114 = getelementptr inbounds i16, ptr %108, i64 %113
  %115 = load i16, ptr %114, align 2, !tbaa !50
  %116 = sext i16 %115 to i32
  %117 = mul i32 9, %116
  %118 = load ptr, ptr %9, align 8, !tbaa !48
  %119 = load i32, ptr %8, align 4, !tbaa !11
  %120 = load i32, ptr %7, align 4, !tbaa !11
  %121 = add nsw i32 %119, %120
  %122 = sext i32 %121 to i64
  %123 = getelementptr inbounds i16, ptr %118, i64 %122
  %124 = load i16, ptr %123, align 2, !tbaa !50
  %125 = sext i16 %124 to i32
  %126 = mul i32 9, %125
  %127 = add i32 %117, %126
  %128 = load ptr, ptr %9, align 8, !tbaa !48
  %129 = load i32, ptr %8, align 4, !tbaa !11
  %130 = load i32, ptr %7, align 4, !tbaa !11
  %131 = add nsw i32 %129, %130
  %132 = add nsw i32 %131, 1
  %133 = sext i32 %132 to i64
  %134 = getelementptr inbounds i16, ptr %128, i64 %133
  %135 = load i16, ptr %134, align 2, !tbaa !50
  %136 = sext i16 %135 to i32
  %137 = sub i32 %127, %136
  %138 = load ptr, ptr %9, align 8, !tbaa !48
  %139 = load i32, ptr %8, align 4, !tbaa !11
  %140 = load i32, ptr %7, align 4, !tbaa !11
  %141 = add nsw i32 %139, %140
  %142 = sub nsw i32 %141, 2
  %143 = sext i32 %142 to i64
  %144 = getelementptr inbounds i16, ptr %138, i64 %143
  %145 = load i16, ptr %144, align 2, !tbaa !50
  %146 = sext i16 %145 to i32
  %147 = sub i32 %137, %146
  %148 = add i32 %147, 16
  %149 = ashr i32 %148, 5
  %150 = sub i32 %107, %149
  %151 = trunc i32 %150 to i16
  %152 = load ptr, ptr %10, align 8, !tbaa !48
  %153 = load i32, ptr %8, align 4, !tbaa !11
  %154 = sext i32 %153 to i64
  %155 = getelementptr inbounds i16, ptr %152, i64 %154
  store i16 %151, ptr %155, align 2, !tbaa !50
  br label %156

156:                                              ; preds = %101
  %157 = load i32, ptr %8, align 4, !tbaa !11
  %158 = add nsw i32 %157, 1
  store i32 %158, ptr %8, align 4, !tbaa !11
  br label %96, !llvm.loop !61

159:                                              ; preds = %96
  %160 = load ptr, ptr %9, align 8, !tbaa !48
  %161 = load i32, ptr %7, align 4, !tbaa !11
  %162 = sub nsw i32 %161, 1
  %163 = sext i32 %162 to i64
  %164 = getelementptr inbounds i16, ptr %160, i64 %163
  %165 = load i16, ptr %164, align 2, !tbaa !50
  %166 = sext i16 %165 to i32
  %167 = load ptr, ptr %9, align 8, !tbaa !48
  %168 = load i32, ptr %6, align 4, !tbaa !11
  %169 = sub nsw i32 %168, 2
  %170 = sext i32 %169 to i64
  %171 = getelementptr inbounds i16, ptr %167, i64 %170
  %172 = load i16, ptr %171, align 2, !tbaa !50
  %173 = sext i16 %172 to i32
  %174 = mul i32 9, %173
  %175 = load ptr, ptr %9, align 8, !tbaa !48
  %176 = load i32, ptr %6, align 4, !tbaa !11
  %177 = sub nsw i32 %176, 1
  %178 = sext i32 %177 to i64
  %179 = getelementptr inbounds i16, ptr %175, i64 %178
  %180 = load i16, ptr %179, align 2, !tbaa !50
  %181 = sext i16 %180 to i32
  %182 = mul i32 9, %181
  %183 = add i32 %174, %182
  %184 = load ptr, ptr %9, align 8, !tbaa !48
  %185 = load i32, ptr %6, align 4, !tbaa !11
  %186 = sub nsw i32 %185, 1
  %187 = sext i32 %186 to i64
  %188 = getelementptr inbounds i16, ptr %184, i64 %187
  %189 = load i16, ptr %188, align 2, !tbaa !50
  %190 = sext i16 %189 to i32
  %191 = sub i32 %183, %190
  %192 = load ptr, ptr %9, align 8, !tbaa !48
  %193 = load i32, ptr %6, align 4, !tbaa !11
  %194 = sub nsw i32 %193, 3
  %195 = sext i32 %194 to i64
  %196 = getelementptr inbounds i16, ptr %192, i64 %195
  %197 = load i16, ptr %196, align 2, !tbaa !50
  %198 = sext i16 %197 to i32
  %199 = sub i32 %191, %198
  %200 = add i32 %199, 16
  %201 = ashr i32 %200, 5
  %202 = sub i32 %166, %201
  %203 = trunc i32 %202 to i16
  %204 = load ptr, ptr %10, align 8, !tbaa !48
  %205 = load i32, ptr %7, align 4, !tbaa !11
  %206 = sub nsw i32 %205, 1
  %207 = sext i32 %206 to i64
  %208 = getelementptr inbounds i16, ptr %204, i64 %207
  store i16 %203, ptr %208, align 2, !tbaa !50
  %209 = load ptr, ptr %10, align 8, !tbaa !48
  %210 = getelementptr inbounds i16, ptr %209, i64 0
  %211 = load i16, ptr %210, align 2, !tbaa !50
  %212 = load ptr, ptr %10, align 8, !tbaa !48
  %213 = getelementptr inbounds i16, ptr %212, i64 -1
  store i16 %211, ptr %213, align 2, !tbaa !50
  %214 = load ptr, ptr %10, align 8, !tbaa !48
  %215 = load i32, ptr %7, align 4, !tbaa !11
  %216 = sub nsw i32 %215, 1
  %217 = sext i32 %216 to i64
  %218 = getelementptr inbounds i16, ptr %214, i64 %217
  %219 = load i16, ptr %218, align 2, !tbaa !50
  %220 = load ptr, ptr %10, align 8, !tbaa !48
  %221 = load i32, ptr %7, align 4, !tbaa !11
  %222 = sext i32 %221 to i64
  %223 = getelementptr inbounds i16, ptr %220, i64 %222
  store i16 %219, ptr %223, align 2, !tbaa !50
  %224 = load ptr, ptr %10, align 8, !tbaa !48
  %225 = load i32, ptr %7, align 4, !tbaa !11
  %226 = add nsw i32 %225, 1
  %227 = sext i32 %226 to i64
  %228 = getelementptr inbounds i16, ptr %224, i64 %227
  store i16 %219, ptr %228, align 2, !tbaa !50
  store i32 0, ptr %8, align 4, !tbaa !11
  br label %229

229:                                              ; preds = %300, %159
  %230 = load i32, ptr %8, align 4, !tbaa !11
  %231 = load i32, ptr %7, align 4, !tbaa !11
  %232 = icmp slt i32 %230, %231
  br i1 %232, label %233, label %303

233:                                              ; preds = %229
  %234 = load ptr, ptr %10, align 8, !tbaa !48
  %235 = load i32, ptr %8, align 4, !tbaa !11
  %236 = sext i32 %235 to i64
  %237 = getelementptr inbounds i16, ptr %234, i64 %236
  %238 = load i16, ptr %237, align 2, !tbaa !50
  %239 = sext i16 %238 to i32
  %240 = add i32 %239, 1
  %241 = ashr i32 %240, 1
  %242 = trunc i32 %241 to i16
  %243 = load ptr, ptr %9, align 8, !tbaa !48
  %244 = load i32, ptr %8, align 4, !tbaa !11
  %245 = mul nsw i32 2, %244
  %246 = sext i32 %245 to i64
  %247 = getelementptr inbounds i16, ptr %243, i64 %246
  store i16 %242, ptr %247, align 2, !tbaa !50
  %248 = load ptr, ptr %9, align 8, !tbaa !48
  %249 = load i32, ptr %8, align 4, !tbaa !11
  %250 = load i32, ptr %7, align 4, !tbaa !11
  %251 = add nsw i32 %249, %250
  %252 = sext i32 %251 to i64
  %253 = getelementptr inbounds i16, ptr %248, i64 %252
  %254 = load i16, ptr %253, align 2, !tbaa !50
  %255 = sext i16 %254 to i32
  %256 = load ptr, ptr %10, align 8, !tbaa !48
  %257 = load i32, ptr %8, align 4, !tbaa !11
  %258 = sext i32 %257 to i64
  %259 = getelementptr inbounds i16, ptr %256, i64 %258
  %260 = load i16, ptr %259, align 2, !tbaa !50
  %261 = sext i16 %260 to i32
  %262 = mul i32 9, %261
  %263 = load ptr, ptr %10, align 8, !tbaa !48
  %264 = load i32, ptr %8, align 4, !tbaa !11
  %265 = add nsw i32 %264, 1
  %266 = sext i32 %265 to i64
  %267 = getelementptr inbounds i16, ptr %263, i64 %266
  %268 = load i16, ptr %267, align 2, !tbaa !50
  %269 = sext i16 %268 to i32
  %270 = mul i32 9, %269
  %271 = add i32 %262, %270
  %272 = load ptr, ptr %10, align 8, !tbaa !48
  %273 = load i32, ptr %8, align 4, !tbaa !11
  %274 = add nsw i32 %273, 2
  %275 = sext i32 %274 to i64
  %276 = getelementptr inbounds i16, ptr %272, i64 %275
  %277 = load i16, ptr %276, align 2, !tbaa !50
  %278 = sext i16 %277 to i32
  %279 = sub i32 %271, %278
  %280 = load ptr, ptr %10, align 8, !tbaa !48
  %281 = load i32, ptr %8, align 4, !tbaa !11
  %282 = sub nsw i32 %281, 1
  %283 = sext i32 %282 to i64
  %284 = getelementptr inbounds i16, ptr %280, i64 %283
  %285 = load i16, ptr %284, align 2, !tbaa !50
  %286 = sext i16 %285 to i32
  %287 = sub i32 %279, %286
  %288 = add i32 %287, 8
  %289 = ashr i32 %288, 4
  %290 = add i32 %255, %289
  %291 = add i32 %290, 1
  %292 = ashr i32 %291, 1
  %293 = trunc i32 %292 to i16
  %294 = load ptr, ptr %9, align 8, !tbaa !48
  %295 = load i32, ptr %8, align 4, !tbaa !11
  %296 = mul nsw i32 2, %295
  %297 = add nsw i32 %296, 1
  %298 = sext i32 %297 to i64
  %299 = getelementptr inbounds i16, ptr %294, i64 %298
  store i16 %293, ptr %299, align 2, !tbaa !50
  br label %300

300:                                              ; preds = %233
  %301 = load i32, ptr %8, align 4, !tbaa !11
  %302 = add nsw i32 %301, 1
  store i32 %302, ptr %8, align 4, !tbaa !11
  br label %229, !llvm.loop !62

303:                                              ; preds = %229
  call void @llvm.lifetime.end.p0(i64 8, ptr %10) #5
  call void @llvm.lifetime.end.p0(i64 8, ptr %9) #5
  call void @llvm.lifetime.end.p0(i64 4, ptr %8) #5
  call void @llvm.lifetime.end.p0(i64 4, ptr %7) #5
  ret void
}