; Function Attrs: nofree norecurse nosync nounwind memory(argmem: readwrite) uwtable
define internal void @horizontal_compose_dd137i_8bit(ptr noundef captures(none) %0, ptr noundef captures(none) initializes((0, 4)) %1, i32 noundef %2) #3 {
  %4 = ashr i32 %2, 1
  %5 = load i16, ptr %0, align 2, !tbaa !39
  %6 = sext i32 %4 to i64
  %7 = getelementptr inbounds i16, ptr %0, i64 %6
  %8 = load i16, ptr %7, align 2, !tbaa !39
  %9 = sext i16 %8 to i32
  %10 = mul nsw i32 %9, 18
  %11 = add nsw i32 %4, 1
  %12 = sext i32 %11 to i64
  %13 = getelementptr inbounds i16, ptr %0, i64 %12
  %14 = load i16, ptr %13, align 2, !tbaa !39
  %15 = sext i16 %14 to i32
  %16 = add nsw i32 %9, %15
  %reass.sub = sub nsw i32 %10, %16
  %17 = add nsw i32 %reass.sub, 16
  %18 = lshr i32 %17, 5
  %19 = trunc i32 %18 to i16
  %20 = sub i16 %5, %19
  store i16 %20, ptr %1, align 2, !tbaa !39
  %21 = getelementptr inbounds nuw i8, ptr %0, i64 2
  %22 = load i16, ptr %21, align 2, !tbaa !39
  %23 = load i16, ptr %7, align 2, !tbaa !39
  %24 = sext i16 %23 to i32
  %25 = load i16, ptr %13, align 2, !tbaa !39
  %26 = sext i16 %25 to i32
  %27 = add nsw i32 %26, %24
  %28 = mul nsw i32 %27, 9
  %29 = getelementptr i8, ptr %7, i64 4
  %30 = load i16, ptr %29, align 2, !tbaa !39
  %31 = sext i16 %30 to i32
  %32 = add nsw i32 %24, %31
  %reass.sub102 = sub nsw i32 %28, %32
  %33 = add nsw i32 %reass.sub102, 16
  %34 = lshr i32 %33, 5
  %35 = trunc i32 %34 to i16
  %36 = sub i16 %22, %35
  %37 = getelementptr inbounds nuw i8, ptr %1, i64 2
  store i16 %36, ptr %37, align 2, !tbaa !39
  %38 = add nsw i32 %4, -1
  %39 = icmp sgt i32 %4, 3
  br i1 %39, label %.lr.ph.preheader, label %._crit_edge

.lr.ph.preheader:                                 ; preds = %3
  %40 = zext nneg i32 %4 to i64
  %wide.trip.count = zext nneg i32 %38 to i64
  %invariant.gep = getelementptr i16, ptr %0, i64 %40
  br label %.lr.ph

.lr.ph:                                           ; preds = %.lr.ph.preheader, %.lr.ph
  %indvars.iv = phi i64 [ 2, %.lr.ph.preheader ], [ %indvars.iv.next, %.lr.ph ]
  %41 = getelementptr inbounds nuw i16, ptr %0, i64 %indvars.iv
  %42 = load i16, ptr %41, align 2, !tbaa !39
  %gep = getelementptr i16, ptr %invariant.gep, i64 %indvars.iv
  %43 = getelementptr i8, ptr %gep, i64 -2
  %44 = load i16, ptr %43, align 2, !tbaa !39
  %45 = sext i16 %44 to i32
  %46 = load i16, ptr %gep, align 2, !tbaa !39
  %47 = sext i16 %46 to i32
  %48 = add nsw i32 %47, %45
  %49 = mul nsw i32 %48, 9
  %50 = getelementptr i8, ptr %gep, i64 2
  %51 = load i16, ptr %50, align 2, !tbaa !39
  %52 = sext i16 %51 to i32
  %53 = getelementptr i8, ptr %gep, i64 -4
  %54 = load i16, ptr %53, align 2, !tbaa !39
  %55 = sext i16 %54 to i32
  %56 = add nsw i32 %52, %55
  %reass.sub103 = sub nsw i32 %49, %56
  %57 = add nsw i32 %reass.sub103, 16
  %58 = lshr i32 %57, 5
  %59 = trunc i32 %58 to i16
  %60 = sub i16 %42, %59
  %61 = getelementptr inbounds nuw i16, ptr %1, i64 %indvars.iv
  store i16 %60, ptr %61, align 2, !tbaa !39
  %indvars.iv.next = add nuw nsw i64 %indvars.iv, 1
  %exitcond.not = icmp eq i64 %indvars.iv.next, %wide.trip.count
  br i1 %exitcond.not, label %._crit_edge, label %.lr.ph, !llvm.loop !49

._crit_edge:                                      ; preds = %.lr.ph, %3
  %62 = sext i32 %38 to i64
  %63 = getelementptr inbounds i16, ptr %0, i64 %62
  %64 = load i16, ptr %63, align 2, !tbaa !39
  %65 = sext i32 %2 to i64
  %66 = getelementptr i16, ptr %0, i64 %65
  %67 = getelementptr i8, ptr %66, i64 -4
  %68 = load i16, ptr %67, align 2, !tbaa !39
  %69 = sext i16 %68 to i32
  %70 = getelementptr i8, ptr %66, i64 -2
  %71 = load i16, ptr %70, align 2, !tbaa !39
  %72 = sext i16 %71 to i32
  %73 = add nsw i32 %72, %69
  %74 = mul nsw i32 %73, 9
  %75 = getelementptr i8, ptr %66, i64 -6
  %76 = load i16, ptr %75, align 2, !tbaa !39
  %77 = sext i16 %76 to i32
  %78 = add nsw i32 %72, %77
  %reass.sub104 = sub nsw i32 %74, %78
  %79 = add nsw i32 %reass.sub104, 16
  %80 = lshr i32 %79, 5
  %81 = trunc i32 %80 to i16
  %82 = sub i16 %64, %81
  %83 = getelementptr inbounds i16, ptr %1, i64 %62
  store i16 %82, ptr %83, align 2, !tbaa !39
  %84 = load i16, ptr %1, align 2, !tbaa !39
  %85 = getelementptr inbounds i8, ptr %1, i64 -2
  store i16 %84, ptr %85, align 2, !tbaa !39
  %86 = load i16, ptr %83, align 2, !tbaa !39
  %87 = getelementptr inbounds i16, ptr %1, i64 %6
  store i16 %86, ptr %87, align 2, !tbaa !39
  %88 = getelementptr inbounds i16, ptr %1, i64 %12
  store i16 %86, ptr %88, align 2, !tbaa !39
  %89 = icmp sgt i32 %4, 0
  br i1 %89, label %.lr.ph100.preheader, label %._crit_edge101

.lr.ph100.preheader:                              ; preds = %._crit_edge
  %90 = zext nneg i32 %4 to i64
  %invariant.gep112 = getelementptr inbounds nuw i16, ptr %0, i64 %90
  br label %.lr.ph100

.lr.ph100:                                        ; preds = %.lr.ph100.preheader, %.lr.ph100
  %indvars.iv107 = phi i64 [ 0, %.lr.ph100.preheader ], [ %indvars.iv.next108, %.lr.ph100 ]
  %91 = getelementptr inbounds nuw i16, ptr %1, i64 %indvars.iv107
  %92 = load i16, ptr %91, align 2, !tbaa !39
  %93 = sext i16 %92 to i32
  %94 = add nsw i32 %93, 1
  %95 = lshr i32 %94, 1
  %96 = trunc i32 %95 to i16
  %.idx = shl nuw nsw i64 %indvars.iv107, 2
  %97 = getelementptr inbounds nuw i8, ptr %0, i64 %.idx
  store i16 %96, ptr %97, align 2, !tbaa !39
  %gep113 = getelementptr inbounds nuw i16, ptr %invariant.gep112, i64 %indvars.iv107
  %98 = load i16, ptr %gep113, align 2, !tbaa !39
  %99 = sext i16 %98 to i32
  %100 = load i16, ptr %91, align 2, !tbaa !39
  %101 = sext i16 %100 to i32
  %indvars.iv.next108 = add nuw nsw i64 %indvars.iv107, 1
  %102 = getelementptr inbounds nuw i16, ptr %1, i64 %indvars.iv.next108
  %103 = load i16, ptr %102, align 2, !tbaa !39
  %104 = sext i16 %103 to i32
  %105 = add nsw i32 %104, %101
  %106 = mul nsw i32 %105, 9
  %107 = getelementptr inbounds nuw i8, ptr %91, i64 4
  %108 = load i16, ptr %107, align 2, !tbaa !39
  %109 = sext i16 %108 to i32
  %110 = getelementptr i8, ptr %91, i64 -2
  %111 = load i16, ptr %110, align 2, !tbaa !39
  %112 = sext i16 %111 to i32
  %113 = add nsw i32 %109, %112
  %reass.sub105 = sub nsw i32 %106, %113
  %114 = add nsw i32 %reass.sub105, 8
  %115 = lshr i32 %114, 4
  %116 = add nsw i32 %99, 1
  %117 = add nsw i32 %116, %115
  %118 = lshr i32 %117, 1
  %119 = trunc i32 %118 to i16
  %120 = getelementptr inbounds nuw i8, ptr %97, i64 2
  store i16 %119, ptr %120, align 2, !tbaa !39
  %exitcond111.not = icmp eq i64 %indvars.iv.next108, %90
  br i1 %exitcond111.not, label %._crit_edge101, label %.lr.ph100, !llvm.loop !50

._crit_edge101:                                   ; preds = %.lr.ph100, %._crit_edge
  ret void
}